target datalayout = "e-m:e-p270:32:32-p271:32:32-p272:64:64-i64:64-i128:128-f80:128-n8:16:32:64-S128"
target triple = "x86_64-pc-linux-gnu"

%struct.Int128_ = type { i64, i64 }

; Function Attrs: nounwind uwtable
define dso_local i32 @i128_ucomp(i64 %0, i64 %1, i64 %2, i64 %3) #0 {
  %5 = alloca i32, align 4
  %6 = alloca %struct.Int128_, align 8
  %7 = alloca %struct.Int128_, align 8
  %8 = getelementptr inbounds { i64, i64 }, ptr %6, i32 0, i32 0
  store i64 %0, ptr %8, align 8
  %9 = getelementptr inbounds { i64, i64 }, ptr %6, i32 0, i32 1
  store i64 %1, ptr %9, align 8
  %10 = getelementptr inbounds { i64, i64 }, ptr %7, i32 0, i32 0
  store i64 %2, ptr %10, align 8
  %11 = getelementptr inbounds { i64, i64 }, ptr %7, i32 0, i32 1
  store i64 %3, ptr %11, align 8
  %12 = getelementptr inbounds %struct.Int128_, ptr %6, i32 0, i32 0
  %13 = load i64, ptr %12, align 8
  %14 = getelementptr inbounds %struct.Int128_, ptr %7, i32 0, i32 0
  %15 = load i64, ptr %14, align 8
  %16 = icmp ugt i64 %13, %15
  br i1 %16, label %17, label %18

17:                                               ; preds = %4
  store i32 1, ptr %5, align 4
  br label %39

18:                                               ; preds = %4
  %19 = getelementptr inbounds %struct.Int128_, ptr %6, i32 0, i32 0
  %20 = load i64, ptr %19, align 8
  %21 = getelementptr inbounds %struct.Int128_, ptr %7, i32 0, i32 0
  %22 = load i64, ptr %21, align 8
  %23 = icmp ult i64 %20, %22
  br i1 %23, label %24, label %25

24:                                               ; preds = %18
  store i32 -1, ptr %5, align 4
  br label %39

25:                                               ; preds = %18
  %26 = getelementptr inbounds %struct.Int128_, ptr %6, i32 0, i32 1
  %27 = load i64, ptr %26, align 8
  %28 = getelementptr inbounds %struct.Int128_, ptr %7, i32 0, i32 1
  %29 = load i64, ptr %28, align 8
  %30 = icmp eq i64 %27, %29
  br i1 %30, label %31, label %32

31:                                               ; preds = %25
  store i32 0, ptr %5, align 4
  br label %39

32:                                               ; preds = %25
  %33 = getelementptr inbounds %struct.Int128_, ptr %6, i32 0, i32 1
  %34 = load i64, ptr %33, align 8
  %35 = getelementptr inbounds %struct.Int128_, ptr %7, i32 0, i32 1
  %36 = load i64, ptr %35, align 8
  %37 = icmp ugt i64 %34, %36
  %38 = select i1 %37, i32 1, i32 -1
  store i32 %38, ptr %5, align 4
  br label %39

39:                                               ; preds = %32, %31, %24, %17
  %40 = load i32, ptr %5, align 4
  ret i32 %40
}

; Function Attrs: nounwind uwtable
define dso_local { i64, i64 } @i128_add64(i64 %0, i64 %1, i64 noundef %2) #0 {
  %4 = alloca %struct.Int128_, align 8
  %5 = alloca %struct.Int128_, align 8
  %6 = alloca i64, align 8
  %7 = alloca i64, align 8
  %8 = getelementptr inbounds { i64, i64 }, ptr %5, i32 0, i32 0
  store i64 %0, ptr %8, align 8
  %9 = getelementptr inbounds { i64, i64 }, ptr %5, i32 0, i32 1
  store i64 %1, ptr %9, align 8
  store i64 %2, ptr %6, align 8
  %10 = getelementptr inbounds %struct.Int128_, ptr %5, i32 0, i32 1
  %11 = load i64, ptr %10, align 8
  %12 = load i64, ptr %6, align 8
  %13 = add i64 %11, %12
  store i64 %13, ptr %7, align 8
  %14 = getelementptr inbounds %struct.Int128_, ptr %4, i32 0, i32 0
  %15 = load i64, ptr %7, align 8
  %16 = getelementptr inbounds %struct.Int128_, ptr %5, i32 0, i32 1
  %17 = load i64, ptr %16, align 8
  %18 = icmp ult i64 %15, %17
  br i1 %18, label %19, label %23

19:                                               ; preds = %3
  %20 = getelementptr inbounds %struct.Int128_, ptr %5, i32 0, i32 0
  %21 = load i64, ptr %20, align 8
  %22 = add i64 %21, 1
  br label %26

23:                                               ; preds = %3
  %24 = getelementptr inbounds %struct.Int128_, ptr %5, i32 0, i32 0
  %25 = load i64, ptr %24, align 8
  br label %26

26:                                               ; preds = %23, %19
  %27 = phi i64 [ %22, %19 ], [ %25, %23 ]
  store i64 %27, ptr %14, align 8
  %28 = getelementptr inbounds %struct.Int128_, ptr %4, i32 0, i32 1
  %29 = load i64, ptr %7, align 8
  store i64 %29, ptr %28, align 8
  %30 = load { i64, i64 }, ptr %4, align 8
  ret { i64, i64 } %30
}

; Function Attrs: nounwind uwtable
define dso_local { i64, i64 } @i128_add_uwrap64(i64 %0, i64 %1, i64 noundef %2, ptr noundef %3) #0 {
  %5 = alloca %struct.Int128_, align 8
  %6 = alloca %struct.Int128_, align 8
  %7 = alloca i64, align 8
  %8 = alloca ptr, align 8
  %9 = getelementptr inbounds { i64, i64 }, ptr %6, i32 0, i32 0
  store i64 %0, ptr %9, align 8
  %10 = getelementptr inbounds { i64, i64 }, ptr %6, i32 0, i32 1
  store i64 %1, ptr %10, align 8
  store i64 %2, ptr %7, align 8
  store ptr %3, ptr %8, align 8
  %11 = load i64, ptr %7, align 8
  %12 = getelementptr inbounds { i64, i64 }, ptr %6, i32 0, i32 0
  %13 = load i64, ptr %12, align 8
  %14 = getelementptr inbounds { i64, i64 }, ptr %6, i32 0, i32 1
  %15 = load i64, ptr %14, align 8
  %16 = call { i64, i64 } @i128_add64(i64 %13, i64 %15, i64 noundef %11)
  %17 = getelementptr inbounds { i64, i64 }, ptr %5, i32 0, i32 0
  %18 = extractvalue { i64, i64 } %16, 0
  store i64 %18, ptr %17, align 8
  %19 = getelementptr inbounds { i64, i64 }, ptr %5, i32 0, i32 1
  %20 = extractvalue { i64, i64 } %16, 1
  store i64 %20, ptr %19, align 8
  %21 = getelementptr inbounds { i64, i64 }, ptr %5, i32 0, i32 0
  %22 = load i64, ptr %21, align 8
  %23 = getelementptr inbounds { i64, i64 }, ptr %5, i32 0, i32 1
  %24 = load i64, ptr %23, align 8
  %25 = getelementptr inbounds { i64, i64 }, ptr %6, i32 0, i32 0
  %26 = load i64, ptr %25, align 8
  %27 = getelementptr inbounds { i64, i64 }, ptr %6, i32 0, i32 1
  %28 = load i64, ptr %27, align 8
  %29 = call i32 @i128_ucomp(i64 %22, i64 %24, i64 %26, i64 %28)
  %30 = icmp eq i32 %29, -1
  %31 = load ptr, ptr %8, align 8
  %32 = zext i1 %30 to i8
  store i8 %32, ptr %31, align 1
  %33 = load { i64, i64 }, ptr %5, align 8
  ret { i64, i64 } %33
}