; Function Attrs: mustprogress nofree norecurse nosync nounwind willreturn memory(argmem: write) uwtable
define dso_local { i64, i64 } @i128_add_uwrap64(i64 %0, i64 %1, i64 noundef %2, ptr noundef writeonly captures(none) initializes((0, 1)) %3) local_unnamed_addr #5 {
  %5 = add i64 %2, %1
  %6 = icmp ult i64 %5, %1
  %7 = zext i1 %6 to i64
  %8 = add i64 %0, %7
  %9 = icmp ugt i64 %8, %0
  br i1 %9, label %i128_ucomp.exit, label %10

10:                                               ; preds = %4
  %11 = icmp ult i64 %8, %0
  br i1 %11, label %i128_ucomp.exit, label %12

12:                                               ; preds = %10
  %13 = icmp eq i64 %2, 0
  br i1 %13, label %i128_ucomp.exit, label %14

14:                                               ; preds = %12
  %15 = icmp ule i64 %5, %1
  %16 = zext i1 %15 to i8
  br label %i128_ucomp.exit

i128_ucomp.exit:                                  ; preds = %4, %10, %12, %14
  %.0.i = phi i8 [ %16, %14 ], [ 0, %4 ], [ 1, %10 ], [ 0, %12 ]
  %.fca.0.insert.i = insertvalue { i64, i64 } poison, i64 %8, 0
  %.fca.1.insert.i = insertvalue { i64, i64 } %.fca.0.insert.i, i64 %5, 1
  store i8 %.0.i, ptr %3, align 1
  ret { i64, i64 } %.fca.1.insert.i
}